; Function Attrs: nounwind uwtable
define ptr @l_Std_Time_Internal_Bounded_LE_ofFin_x27___rarg(ptr noundef %0, ptr noundef %1, ptr readnone captures(none) %2) #1 {
  %4 = ptrtoint ptr %0 to i64
  %5 = and i64 %4, 1
  %.not = icmp eq i64 %5, 0
  br i1 %.not, label %lean_nat_le.exit.thread18, label %6, !prof !10

6:                                                ; preds = %3
  %7 = ptrtoint ptr %1 to i64
  %8 = and i64 %7, 1
  %.not20 = icmp eq i64 %8, 0
  br i1 %.not20, label %lean_nat_le.exit, label %lean_nat_le.exit.thread, !prof !10

lean_nat_le.exit:                                 ; preds = %6
  %9 = tail call zeroext i1 @lean_nat_big_le(ptr noundef %0, ptr noundef %1) #5
  br i1 %9, label %lean_dec.exit, label %.thread

lean_nat_le.exit.thread18:                        ; preds = %3
  %10 = tail call zeroext i1 @lean_nat_big_le(ptr noundef %0, ptr noundef %1) #5
  br i1 %10, label %20, label %11

lean_nat_le.exit.thread:                          ; preds = %6
  %.not21 = icmp ugt ptr %0, %1
  br i1 %.not21, label %lean_dec.exit9, label %lean_dec.exit

11:                                               ; preds = %lean_nat_le.exit.thread18
  %.pre = ptrtoint ptr %1 to i64
  %.pre23 = and i64 %.pre, 1
  %12 = icmp eq i64 %.pre23, 0
  br i1 %12, label %.thread, label %lean_nat_to_int.exit

.thread:                                          ; preds = %lean_nat_le.exit, %11
  %13 = load i32, ptr %1, align 4, !tbaa !4
  %14 = icmp sgt i32 %13, 1
  br i1 %14, label %15, label %17, !prof !9

15:                                               ; preds = %.thread
  %16 = add nsw i32 %13, -1
  store i32 %16, ptr %1, align 4, !tbaa !4
  br label %lean_dec.exit9

17:                                               ; preds = %.thread
  %.not.i = icmp eq i32 %13, 0
  br i1 %.not.i, label %lean_dec.exit9, label %18

18:                                               ; preds = %17
  tail call void @lean_dec_ref_cold(ptr noundef nonnull %1) #5
  br label %lean_dec.exit9

lean_dec.exit9:                                   ; preds = %lean_nat_le.exit.thread, %18, %17, %15
  %19 = icmp ult ptr %0, inttoptr (i64 4294967296 to ptr)
  %or.cond.i = or i1 %19, %.not
  br i1 %or.cond.i, label %lean_nat_to_int.exit, label %lean_nat_to_int.exit.sink.split

20:                                               ; preds = %lean_nat_le.exit.thread18
  %21 = load i32, ptr %0, align 4, !tbaa !4
  %22 = icmp sgt i32 %21, 1
  br i1 %22, label %23, label %25, !prof !9

23:                                               ; preds = %20
  %24 = add nsw i32 %21, -1
  store i32 %24, ptr %0, align 4, !tbaa !4
  br label %lean_dec.exit

25:                                               ; preds = %20
  %.not.i10 = icmp eq i32 %21, 0
  br i1 %.not.i10, label %lean_dec.exit, label %26

26:                                               ; preds = %25
  tail call void @lean_dec_ref_cold(ptr noundef nonnull %0) #5
  br label %lean_dec.exit

lean_dec.exit:                                    ; preds = %lean_nat_le.exit, %lean_nat_le.exit.thread, %26, %25, %23
  %27 = ptrtoint ptr %1 to i64
  %28 = and i64 %27, 1
  %.not.i13 = icmp eq i64 %28, 0
  %29 = icmp ult ptr %1, inttoptr (i64 4294967296 to ptr)
  %or.cond.i14 = or i1 %29, %.not.i13
  br i1 %or.cond.i14, label %lean_nat_to_int.exit, label %lean_nat_to_int.exit.sink.split

lean_nat_to_int.exit.sink.split:                  ; preds = %lean_dec.exit, %lean_dec.exit9
  %.sink29 = phi i64 [ %4, %lean_dec.exit9 ], [ %27, %lean_dec.exit ]
  %30 = lshr i64 %.sink29, 1
  %31 = tail call ptr @lean_big_size_t_to_int(i64 noundef %30) #5
  br label %lean_nat_to_int.exit

lean_nat_to_int.exit:                             ; preds = %lean_nat_to_int.exit.sink.split, %11, %lean_dec.exit, %lean_dec.exit9
  %.0 = phi ptr [ %0, %lean_dec.exit9 ], [ %1, %lean_dec.exit ], [ %0, %11 ], [ %31, %lean_nat_to_int.exit.sink.split ]
  ret ptr %.0
}